; Function Attrs: nounwind uwtable
define internal void @put_mspel8_mc32_c(ptr noundef %0, ptr noundef readonly captures(none) %1, i64 noundef %2) #3 {
  %4 = alloca [88 x i8], align 16
  %5 = alloca [64 x i8], align 16
  %6 = alloca [64 x i8], align 16
  call void @llvm.lifetime.start.p0(i64 88, ptr nonnull %4) #6
  call void @llvm.lifetime.start.p0(i64 64, ptr nonnull %5) #6
  call void @llvm.lifetime.start.p0(i64 64, ptr nonnull %6) #6
  %7 = sub i64 0, %2
  %8 = getelementptr inbounds i8, ptr %1, i64 %7
  %9 = trunc i64 %2 to i32
  call fastcc void @wmv2_mspel8_h_lowpass(ptr noundef nonnull %4, ptr noundef %8, i32 noundef 8, i32 noundef %9, i32 noundef 11)
  %10 = getelementptr inbounds nuw i8, ptr %1, i64 1
  call fastcc void @wmv2_mspel8_v_lowpass(ptr noundef nonnull %5, ptr noundef nonnull %10, i32 noundef 8, i32 noundef %9)
  %11 = getelementptr inbounds nuw i8, ptr %4, i64 8
  call fastcc void @wmv2_mspel8_v_lowpass(ptr noundef nonnull %6, ptr noundef nonnull %11, i32 noundef 8, i32 noundef 8)
  call void @ff_put_pixels8_l2_8(ptr noundef %0, ptr noundef nonnull %5, ptr noundef nonnull %6, i32 noundef %9, i32 noundef 8, i32 noundef 8, i32 noundef 8) #6
  call void @llvm.lifetime.end.p0(i64 64, ptr nonnull %6) #6
  call void @llvm.lifetime.end.p0(i64 64, ptr nonnull %5) #6
  call void @llvm.lifetime.end.p0(i64 88, ptr nonnull %4) #6
  ret void
}